(dp0
S'n04467665'
p1
cnumpy.core.multiarray
scalar
p2
(cnumpy
dtype
p3
(S'i8'
p4
I0
I1
tp5
Rp6
(I3
S'<'
p7
NNNI-1
I-1
I0
tp8
bS'm\x03\x00\x00\x00\x00\x00\x00'
p9
tp10
Rp11
sS'n04285008'
p12
g2
(g6
S'\xd1\x02\x00\x00\x00\x00\x00\x00'
p13
tp14
Rp15
s.